; Function Attrs: nounwind uwtable
define void @lv_buttonmatrix_set_button_ctrl(ptr noundef %0, i32 noundef %1, i32 noundef %2) local_unnamed_addr #0 {
  %4 = getelementptr inbounds nuw i8, ptr %0, i64 88
  %5 = load i32, ptr %4, align 8, !tbaa !3
  %.not = icmp ult i32 %1, %5
  br i1 %.not, label %6, label %28

6:                                                ; preds = %3
  %7 = getelementptr inbounds nuw i8, ptr %0, i64 100
  %8 = load i8, ptr %7, align 4
  %9 = and i8 %8, 1
  %.not12 = icmp eq i8 %9, 0
  %10 = and i32 %2, 256
  %.not13 = icmp eq i32 %10, 0
  %or.cond = or i1 %.not13, %.not12
  br i1 %or.cond, label %lv_buttonmatrix_clear_button_ctrl_all.exit, label %.lr.ph.i

.lr.ph.i:                                         ; preds = %6
  %11 = getelementptr inbounds nuw i8, ptr %0, i64 80
  br label %lv_buttonmatrix_clear_button_ctrl.exit.us.i

lv_buttonmatrix_clear_button_ctrl.exit.us.i:      ; preds = %lv_buttonmatrix_clear_button_ctrl.exit.us.i, %.lr.ph.i
  %indvars.iv9.i = phi i64 [ %indvars.iv.next10.i, %lv_buttonmatrix_clear_button_ctrl.exit.us.i ], [ 0, %.lr.ph.i ]
  %12 = load ptr, ptr %11, align 8, !tbaa !15
  %13 = getelementptr inbounds nuw i32, ptr %12, i64 %indvars.iv9.i
  %14 = load i32, ptr %13, align 4, !tbaa !21
  %15 = and i32 %14, -257
  store i32 %15, ptr %13, align 4, !tbaa !21
  %16 = trunc nuw i64 %indvars.iv9.i to i32
  tail call fastcc void @invalidate_button_area(ptr noundef nonnull %0, i32 noundef %16)
  %indvars.iv.next10.i = add nuw nsw i64 %indvars.iv9.i, 1
  %17 = load i32, ptr %4, align 8, !tbaa !3
  %18 = zext i32 %17 to i64
  %19 = icmp samesign ult i64 %indvars.iv.next10.i, %18
  br i1 %19, label %lv_buttonmatrix_clear_button_ctrl.exit.us.i, label %lv_buttonmatrix_clear_button_ctrl_all.exit, !llvm.loop !38

lv_buttonmatrix_clear_button_ctrl_all.exit:       ; preds = %lv_buttonmatrix_clear_button_ctrl.exit.us.i, %6
  %20 = getelementptr inbounds nuw i8, ptr %0, i64 80
  %21 = load ptr, ptr %20, align 8, !tbaa !15
  %22 = zext i32 %1 to i64
  %23 = getelementptr inbounds nuw i32, ptr %21, i64 %22
  %24 = load i32, ptr %23, align 4, !tbaa !21
  %25 = or i32 %24, %2
  store i32 %25, ptr %23, align 4, !tbaa !21
  tail call fastcc void @invalidate_button_area(ptr noundef nonnull %0, i32 noundef %1)
  %26 = and i32 %2, 1024
  %.not14 = icmp eq i32 %26, 0
  br i1 %.not14, label %28, label %27

27:                                               ; preds = %lv_buttonmatrix_clear_button_ctrl_all.exit
  tail call void @lv_obj_refresh_ext_draw_size(ptr noundef nonnull %0) #7
  br label %28

28:                                               ; preds = %lv_buttonmatrix_clear_button_ctrl_all.exit, %27, %3
  ret void
}